target datalayout = "e-m:e-p270:32:32-p271:32:32-p272:64:64-i64:64-i128:128-f80:128-n8:16:32:64-S128"
target triple = "x86_64-pc-linux-gnu"

%struct.timeval = type { i64, i64 }
%struct.per_transfer = type { ptr, ptr, ptr, ptr, ptr, i64, i64, i64, i64, %struct.timeval, %struct.timeval, ptr, i32, ptr, i32, %struct.ProgressData, %struct.OutStruct, %struct.OutStruct, %struct.OutStruct, %struct.HdrCbData, i64, i64, i64, i64, i64, i64, i64, i64, i8, i8, ptr, ptr, i8, i8, i8, i8, i8, i8 }
%struct.ProgressData = type { i32, i64, %struct.timeval, i32, ptr, i64, i32, i32, i32 }
%struct.OutStruct = type { ptr, i8, i8, i8, i8, ptr, i64, i64 }
%struct.HdrCbData = type { ptr, ptr, ptr, ptr, ptr, ptr, i8 }
%struct.OperationConfig = type { i8, ptr, ptr, ptr, ptr, ptr, ptr, i8, i8, i8, i64, i8, i8, i8, i8, i8, ptr, i8, ptr, i8, ptr, i64, ptr, %struct.dynbuf, ptr, ptr, i64, i64, i64, i64, ptr, ptr, ptr, ptr, i64, i64, i16, ptr, i64, i64, i64, i64, ptr, ptr, ptr, ptr, ptr, ptr, ptr, ptr, ptr, ptr, ptr, ptr, ptr, ptr, i32, ptr, ptr, ptr, ptr, i8, ptr, i8, i8, i8, i8, i8, i8, i8, i8, i8, i8, i8, i8, i8, i8, ptr, ptr, ptr, ptr, ptr, ptr, i64, ptr, ptr, ptr, ptr, ptr, ptr, ptr, ptr, ptr, ptr, ptr, ptr, ptr, ptr, ptr, ptr, ptr, ptr, ptr, ptr, ptr, ptr, ptr, ptr, ptr, ptr, ptr, ptr, ptr, ptr, i8, ptr, ptr, ptr, ptr, i64, i8, i8, i8, i8, i8, i8, i8, i8, i8, i8, i8, i8, i8, i8, i8, i8, i8, i8, i8, i8, ptr, ptr, ptr, ptr, i64, i64, i64, i64, i64, i32, i64, ptr, ptr, ptr, ptr, ptr, ptr, ptr, ptr, i32, i64, i64, i8, i8, i8, i8, i32, ptr, i8, i64, ptr, ptr, i8, i8, i64, i8, i8, i64, i64, ptr, ptr, i32, i64, i64, i8, i8, i8, i8, i8, i8, i8, i8, i64, i64, i8, i32, i8, i64, i8, i8, i8, i8, i8, i8, i8, i8, i8, ptr, i8, ptr, i8, i8, i8, i64, i8, i8, i8, i64, i8, ptr, i8, ptr, i32, i8, ptr, ptr, ptr, %struct.State, i8, i8, ptr, ptr, ptr }
%struct.dynbuf = type { ptr, i64, i64, i64 }
%struct.State = type { ptr, ptr, ptr, ptr, ptr, ptr, i64, i64, i64, i64 }

; Function Attrs: nounwind uwtable
define dso_local i32 @xferinfo_cb(ptr noundef %0, i64 noundef %1, i64 noundef %2, i64 noundef %3, i64 noundef %4) #0 {
  %6 = alloca i32, align 4
  %7 = alloca ptr, align 8
  %8 = alloca i64, align 8
  %9 = alloca i64, align 8
  %10 = alloca i64, align 8
  %11 = alloca i64, align 8
  %12 = alloca ptr, align 8
  %13 = alloca ptr, align 8
  %14 = alloca i32, align 4
  store ptr %0, ptr %7, align 8, !tbaa !4
  store i64 %1, ptr %8, align 8, !tbaa !8
  store i64 %2, ptr %9, align 8, !tbaa !8
  store i64 %3, ptr %10, align 8, !tbaa !8
  store i64 %4, ptr %11, align 8, !tbaa !8
  call void @llvm.lifetime.start.p0(i64 8, ptr %12) #5
  %15 = load ptr, ptr %7, align 8, !tbaa !4
  store ptr %15, ptr %12, align 8, !tbaa !10
  call void @llvm.lifetime.start.p0(i64 8, ptr %13) #5
  %16 = load ptr, ptr %12, align 8, !tbaa !10
  %17 = getelementptr inbounds nuw %struct.per_transfer, ptr %16, i32 0, i32 2
  %18 = load ptr, ptr %17, align 8, !tbaa !12
  store ptr %18, ptr %13, align 8, !tbaa !27
  %19 = load i64, ptr %8, align 8, !tbaa !8
  %20 = load ptr, ptr %12, align 8, !tbaa !10
  %21 = getelementptr inbounds nuw %struct.per_transfer, ptr %20, i32 0, i32 22
  store i64 %19, ptr %21, align 8, !tbaa !28
  %22 = load i64, ptr %9, align 8, !tbaa !8
  %23 = load ptr, ptr %12, align 8, !tbaa !10
  %24 = getelementptr inbounds nuw %struct.per_transfer, ptr %23, i32 0, i32 23
  store i64 %22, ptr %24, align 8, !tbaa !29
  %25 = load i64, ptr %10, align 8, !tbaa !8
  %26 = load ptr, ptr %12, align 8, !tbaa !10
  %27 = getelementptr inbounds nuw %struct.per_transfer, ptr %26, i32 0, i32 24
  store i64 %25, ptr %27, align 8, !tbaa !30
  %28 = load i64, ptr %11, align 8, !tbaa !8
  %29 = load ptr, ptr %12, align 8, !tbaa !10
  %30 = getelementptr inbounds nuw %struct.per_transfer, ptr %29, i32 0, i32 25
  store i64 %28, ptr %30, align 8, !tbaa !31
  %31 = load ptr, ptr %12, align 8, !tbaa !10
  %32 = getelementptr inbounds nuw %struct.per_transfer, ptr %31, i32 0, i32 36
  %33 = load i8, ptr %32, align 4, !tbaa !32, !range !33, !noundef !34
  %34 = trunc i8 %33 to i1
  br i1 %34, label %35, label %36

35:                                               ; preds = %5
  store i32 1, ptr %6, align 4
  store i32 1, ptr %14, align 4
  br label %49

36:                                               ; preds = %5
  %37 = load ptr, ptr %13, align 8, !tbaa !27
  %38 = getelementptr inbounds nuw %struct.OperationConfig, ptr %37, i32 0, i32 122
  %39 = load i8, ptr %38, align 2, !tbaa !35, !range !33, !noundef !34
  %40 = trunc i8 %39 to i1
  br i1 %40, label %41, label %48

41:                                               ; preds = %36
  %42 = load ptr, ptr %13, align 8, !tbaa !27
  %43 = getelementptr inbounds nuw %struct.OperationConfig, ptr %42, i32 0, i32 122
  store i8 0, ptr %43, align 2, !tbaa !35
  %44 = load ptr, ptr %12, align 8, !tbaa !10
  %45 = getelementptr inbounds nuw %struct.per_transfer, ptr %44, i32 0, i32 4
  %46 = load ptr, ptr %45, align 8, !tbaa !44
  %47 = call i32 @curl_easy_pause(ptr noundef %46, i32 noundef 0)
  br label %48

48:                                               ; preds = %41, %36
  store i32 0, ptr %6, align 4
  store i32 1, ptr %14, align 4
  br label %49

49:                                               ; preds = %48, %35
  call void @llvm.lifetime.end.p0(i64 8, ptr %13) #5
  call void @llvm.lifetime.end.p0(i64 8, ptr %12) #5
  %50 = load i32, ptr %6, align 4
  ret i32 %50
}