; Function Attrs: nounwind uwtable
define dso_local range(i32 0, 2) i32 @xferinfo_cb(ptr noundef captures(none) initializes((400, 432)) %0, i64 noundef %1, i64 noundef %2, i64 noundef %3, i64 noundef %4) local_unnamed_addr #0 {
  %6 = getelementptr inbounds nuw i8, ptr %0, i64 16
  %7 = load ptr, ptr %6, align 8, !tbaa !4
  %8 = getelementptr inbounds nuw i8, ptr %0, i64 400
  store i64 %1, ptr %8, align 8, !tbaa !24
  %9 = getelementptr inbounds nuw i8, ptr %0, i64 408
  store i64 %2, ptr %9, align 8, !tbaa !25
  %10 = getelementptr inbounds nuw i8, ptr %0, i64 416
  store i64 %3, ptr %10, align 8, !tbaa !26
  %11 = getelementptr inbounds nuw i8, ptr %0, i64 424
  store i64 %4, ptr %11, align 8, !tbaa !27
  %12 = getelementptr inbounds nuw i8, ptr %0, i64 476
  %13 = load i8, ptr %12, align 4, !tbaa !28, !range !29, !noundef !30
  %14 = trunc nuw i8 %13 to i1
  br i1 %14, label %23, label %15

15:                                               ; preds = %5
  %16 = getelementptr inbounds nuw i8, ptr %7, i64 842
  %17 = load i8, ptr %16, align 2, !tbaa !31, !range !29, !noundef !30
  %18 = trunc nuw i8 %17 to i1
  br i1 %18, label %19, label %23

19:                                               ; preds = %15
  store i8 0, ptr %16, align 2, !tbaa !31
  %20 = getelementptr inbounds nuw i8, ptr %0, i64 32
  %21 = load ptr, ptr %20, align 8, !tbaa !40
  %22 = tail call i32 @curl_easy_pause(ptr noundef %21, i32 noundef 0) #7
  br label %23

23:                                               ; preds = %15, %19, %5
  %.0 = phi i32 [ 1, %5 ], [ 0, %19 ], [ 0, %15 ]
  ret i32 %.0
}